; ModuleID = '55/1579.cpp'
source_filename = "55/1579.cpp"
target datalayout = "e-m:e-p270:32:32-p271:32:32-p272:64:64-i64:64-f80:128-n8:16:32:64-S128"
target triple = "x86_64-pc-linux-gnu"

%"class.std::ios_base::Init" = type { i8 }
%"class.std::basic_ostream" = type { i32 (...)**, %"class.std::basic_ios" }
%"class.std::basic_ios" = type { %"class.std::ios_base", %"class.std::basic_ostream"*, i8, i8, %"class.std::basic_streambuf"*, %"class.std::ctype"*, %"class.std::num_put"*, %"class.std::num_get"* }
%"class.std::ios_base" = type { i32 (...)**, i64, i64, i32, i32, i32, %"struct.std::ios_base::_Callback_list"*, %"struct.std::ios_base::_Words", [8 x %"struct.std::ios_base::_Words"], i32, %"struct.std::ios_base::_Words"*, %"class.std::locale" }
%"struct.std::ios_base::_Callback_list" = type { %"struct.std::ios_base::_Callback_list"*, void (i32, %"class.std::ios_base"*, i32)*, i32, i32 }
%"struct.std::ios_base::_Words" = type { i8*, i64 }
%"class.std::locale" = type { %"class.std::locale::_Impl"* }
%"class.std::locale::_Impl" = type { i32, %"class.std::locale::facet"**, i64, %"class.std::locale::facet"**, i8** }
%"class.std::locale::facet" = type <{ i32 (...)**, i32, [4 x i8] }>
%"class.std::basic_streambuf" = type { i32 (...)**, i8*, i8*, i8*, i8*, i8*, i8*, %"class.std::locale" }
%"class.std::ctype" = type <{ %"class.std::locale::facet.base", [4 x i8], %struct.__locale_struct*, i8, [7 x i8], i32*, i32*, i16*, i8, [256 x i8], [256 x i8], i8, [6 x i8] }>
%"class.std::locale::facet.base" = type <{ i32 (...)**, i32 }>
%struct.__locale_struct = type { [13 x %struct.__locale_data*], i16*, i32*, i32*, [13 x i8*] }
%struct.__locale_data = type opaque
%"class.std::num_put" = type { %"class.std::locale::facet.base", [4 x i8] }
%"class.std::num_get" = type { %"class.std::locale::facet.base", [4 x i8] }
%"class.std::basic_istream" = type { i32 (...)**, i64, %"class.std::basic_ios" }

@_ZStL8__ioinit = internal global %"class.std::ios_base::Init" zeroinitializer, align 1
@__dso_handle = external hidden global i8
@CHR = dso_local global [120 x i8] zeroinitializer, align 16
@p1 = dso_local global i32 0, align 4
@p2 = dso_local global i32 0, align 4
@p3 = dso_local global i32 0, align 4
@num = dso_local global i32 0, align 4
@_ZSt4cout = external dso_local global %"class.std::basic_ostream", align 8
@_ZSt3cin = external dso_local global %"class.std::basic_istream", align 8
@llvm.global_ctors = appending global [1 x { i32, void ()*, i8* }] [{ i32, void ()*, i8* } { i32 65535, void ()* @_GLOBAL__sub_I_1579.cpp, i8* null }]

; Function Attrs: noinline uwtable
define internal void @__cxx_global_var_init() #0 section ".text.startup" {
  call void @_ZNSt8ios_base4InitC1Ev(%"class.std::ios_base::Init"* @_ZStL8__ioinit)
  %1 = call i32 @__cxa_atexit(void (i8*)* bitcast (void (%"class.std::ios_base::Init"*)* @_ZNSt8ios_base4InitD1Ev to void (i8*)*), i8* getelementptr inbounds (%"class.std::ios_base::Init", %"class.std::ios_base::Init"* @_ZStL8__ioinit, i32 0, i32 0), i8* @__dso_handle) #3
  ret void
}

declare dso_local void @_ZNSt8ios_base4InitC1Ev(%"class.std::ios_base::Init"*) unnamed_addr #1

; Function Attrs: nounwind
declare dso_local void @_ZNSt8ios_base4InitD1Ev(%"class.std::ios_base::Init"*) unnamed_addr #2

; Function Attrs: nounwind
declare dso_local i32 @__cxa_atexit(void (i8*)*, i8*, i8*) #3

; Function Attrs: noinline nounwind uwtable
define dso_local i32 @_Z4dealc(i8 signext %0) #4 {
  %2 = alloca i32, align 4
  %3 = alloca i8, align 1
  store i8 %0, i8* %3, align 1
  %4 = load i8, i8* %3, align 1
  %5 = sext i8 %4 to i32
  %6 = icmp sge i32 %5, 48
  br i1 %6, label %7, label %15

7:                                                ; preds = %1
  %8 = load i8, i8* %3, align 1
  %9 = sext i8 %8 to i32
  %10 = icmp sle i32 %9, 57
  br i1 %10, label %11, label %15

11:                                               ; preds = %7
  %12 = load i8, i8* %3, align 1
  %13 = sext i8 %12 to i32
  %14 = sub nsw i32 %13, 48
  store i32 %14, i32* %2, align 4
  br label %29

15:                                               ; preds = %7, %1
  %16 = load i8, i8* %3, align 1
  %17 = sext i8 %16 to i32
  %18 = icmp sge i32 %17, 65
  br i1 %18, label %19, label %28

19:                                               ; preds = %15
  %20 = load i8, i8* %3, align 1
  %21 = sext i8 %20 to i32
  %22 = icmp sle i32 %21, 90
  br i1 %22, label %23, label %28

23:                                               ; preds = %19
  %24 = load i8, i8* %3, align 1
  %25 = sext i8 %24 to i32
  %26 = sub nsw i32 %25, 65
  %27 = add nsw i32 %26, 10
  store i32 %27, i32* %2, align 4
  br label %29

28:                                               ; preds = %19, %15
  store i32 -1, i32* %2, align 4
  br label %29

29:                                               ; preds = %28, %23, %11
  %30 = load i32, i32* %2, align 4
  ret i32 %30
}

; Function Attrs: noinline nounwind uwtable
define dso_local signext i8 @_Z4laedi(i32 %0) #4 {
  %2 = alloca i8, align 1
  %3 = alloca i32, align 4
  store i32 %0, i32* %3, align 4
  %4 = load i32, i32* %3, align 4
  %5 = icmp sge i32 %4, 0
  br i1 %5, label %6, label %13

6:                                                ; preds = %1
  %7 = load i32, i32* %3, align 4
  %8 = icmp sle i32 %7, 9
  br i1 %8, label %9, label %13

9:                                                ; preds = %6
  %10 = load i32, i32* %3, align 4
  %11 = add nsw i32 48, %10
  %12 = trunc i32 %11 to i8
  store i8 %12, i8* %2, align 1
  br label %22

13:                                               ; preds = %6, %1
  %14 = load i32, i32* %3, align 4
  %15 = icmp sgt i32 %14, 9
  br i1 %15, label %16, label %21

16:                                               ; preds = %13
  %17 = load i32, i32* %3, align 4
  %18 = add nsw i32 65, %17
  %19 = sub nsw i32 %18, 10
  %20 = trunc i32 %19 to i8
  store i8 %20, i8* %2, align 1
  br label %22

21:                                               ; preds = %13
  call void @llvm.trap()
  unreachable

22:                                               ; preds = %16, %9
  %23 = load i8, i8* %2, align 1
  ret i8 %23
}

; Function Attrs: cold noreturn nounwind
declare void @llvm.trap() #5

; Function Attrs: noinline uwtable
define dso_local void @_Z6outputi(i32 %0) #0 {
  %2 = alloca i32, align 4
  store i32 %0, i32* %2, align 4
  %3 = load i32, i32* %2, align 4
  %4 = icmp eq i32 %3, 0
  br i1 %4, label %5, label %6

5:                                                ; preds = %1
  br label %15

6:                                                ; preds = %1
  %7 = load i32, i32* %2, align 4
  %8 = load i32, i32* @p3, align 4
  %9 = sdiv i32 %7, %8
  call void @_Z6outputi(i32 %9)
  %10 = load i32, i32* %2, align 4
  %11 = load i32, i32* @p3, align 4
  %12 = srem i32 %10, %11
  %13 = call signext i8 @_Z4laedi(i32 %12)
  %14 = call dereferenceable(272) %"class.std::basic_ostream"* @_ZStlsISt11char_traitsIcEERSt13basic_ostreamIcT_ES5_c(%"class.std::basic_ostream"* dereferenceable(272) @_ZSt4cout, i8 signext %13)
  br label %15

15:                                               ; preds = %5, %6
  ret void
}

declare dso_local dereferenceable(272) %"class.std::basic_ostream"* @_ZStlsISt11char_traitsIcEERSt13basic_ostreamIcT_ES5_c(%"class.std::basic_ostream"* dereferenceable(272), i8 signext) #1

; Function Attrs: noinline norecurse uwtable
define dso_local i32 @main() #6 {
  %1 = alloca i32, align 4
  store i32 0, i32* %1, align 4
  %2 = call dereferenceable(280) %"class.std::basic_istream"* @_ZNSirsERi(%"class.std::basic_istream"* @_ZSt3cin, i32* dereferenceable(4) @p1)
  %3 = call i32 @_ZNSi3getEv(%"class.std::basic_istream"* @_ZSt3cin)
  store i32 0, i32* @p2, align 4
  store i32 0, i32* @num, align 4
  br label %4

4:                                                ; preds = %38, %0
  %5 = call i32 @_ZNSi3getEv(%"class.std::basic_istream"* @_ZSt3cin)
  %6 = trunc i32 %5 to i8
  %7 = load i32, i32* @p2, align 4
  %8 = sext i32 %7 to i64
  %9 = getelementptr inbounds [120 x i8], [120 x i8]* @CHR, i64 0, i64 %8
  store i8 %6, i8* %9, align 1
  %10 = sext i8 %6 to i32
  %11 = icmp ne i32 %10, 32
  br i1 %11, label %12, label %50

12:                                               ; preds = %4
  %13 = load i32, i32* @p2, align 4
  %14 = sext i32 %13 to i64
  %15 = getelementptr inbounds [120 x i8], [120 x i8]* @CHR, i64 0, i64 %14
  %16 = load i8, i8* %15, align 1
  %17 = sext i8 %16 to i32
  %18 = icmp sge i32 %17, 97
  br i1 %18, label %19, label %38

19:                                               ; preds = %12
  %20 = load i32, i32* @p2, align 4
  %21 = sext i32 %20 to i64
  %22 = getelementptr inbounds [120 x i8], [120 x i8]* @CHR, i64 0, i64 %21
  %23 = load i8, i8* %22, align 1
  %24 = sext i8 %23 to i32
  %25 = icmp sle i32 %24, 122
  br i1 %25, label %26, label %38

26:                                               ; preds = %19
  %27 = load i32, i32* @p2, align 4
  %28 = sext i32 %27 to i64
  %29 = getelementptr inbounds [120 x i8], [120 x i8]* @CHR, i64 0, i64 %28
  %30 = load i8, i8* %29, align 1
  %31 = sext i8 %30 to i32
  %32 = sub nsw i32 %31, 97
  %33 = add nsw i32 %32, 65
  %34 = trunc i32 %33 to i8
  %35 = load i32, i32* @p2, align 4
  %36 = sext i32 %35 to i64
  %37 = getelementptr inbounds [120 x i8], [120 x i8]* @CHR, i64 0, i64 %36
  store i8 %34, i8* %37, align 1
  br label %38

38:                                               ; preds = %26, %19, %12
  %39 = load i32, i32* @num, align 4
  %40 = load i32, i32* @p1, align 4
  %41 = mul nsw i32 %39, %40
  %42 = load i32, i32* @p2, align 4
  %43 = sext i32 %42 to i64
  %44 = getelementptr inbounds [120 x i8], [120 x i8]* @CHR, i64 0, i64 %43
  %45 = load i8, i8* %44, align 1
  %46 = call i32 @_Z4dealc(i8 signext %45)
  %47 = add nsw i32 %41, %46
  store i32 %47, i32* @num, align 4
  %48 = load i32, i32* @p2, align 4
  %49 = add nsw i32 %48, 1
  store i32 %49, i32* @p2, align 4
  br label %4

50:                                               ; preds = %4
  %51 = call dereferenceable(280) %"class.std::basic_istream"* @_ZNSirsERi(%"class.std::basic_istream"* @_ZSt3cin, i32* dereferenceable(4) @p3)
  %52 = load i32, i32* @num, align 4
  %53 = icmp eq i32 %52, 0
  br i1 %53, label %54, label %56

54:                                               ; preds = %50
  %55 = call dereferenceable(272) %"class.std::basic_ostream"* @_ZNSolsEi(%"class.std::basic_ostream"* @_ZSt4cout, i32 0)
  br label %58

56:                                               ; preds = %50
  %57 = load i32, i32* @num, align 4
  call void @_Z6outputi(i32 %57)
  br label %58

58:                                               ; preds = %56, %54
  %59 = call dereferenceable(272) %"class.std::basic_ostream"* @_ZNSolsEPFRSoS_E(%"class.std::basic_ostream"* @_ZSt4cout, %"class.std::basic_ostream"* (%"class.std::basic_ostream"*)* @_ZSt4endlIcSt11char_traitsIcEERSt13basic_ostreamIT_T0_ES6_)
  ret i32 0
}

declare dso_local dereferenceable(280) %"class.std::basic_istream"* @_ZNSirsERi(%"class.std::basic_istream"*, i32* dereferenceable(4)) #1

declare dso_local i32 @_ZNSi3getEv(%"class.std::basic_istream"*) #1

declare dso_local dereferenceable(272) %"class.std::basic_ostream"* @_ZNSolsEi(%"class.std::basic_ostream"*, i32) #1

declare dso_local dereferenceable(272) %"class.std::basic_ostream"* @_ZNSolsEPFRSoS_E(%"class.std::basic_ostream"*, %"class.std::basic_ostream"* (%"class.std::basic_ostream"*)*) #1

declare dso_local dereferenceable(272) %"class.std::basic_ostream"* @_ZSt4endlIcSt11char_traitsIcEERSt13basic_ostreamIT_T0_ES6_(%"class.std::basic_ostream"* dereferenceable(272)) #1

; Function Attrs: noinline uwtable
define internal void @_GLOBAL__sub_I_1579.cpp() #0 section ".text.startup" {
  call void @__cxx_global_var_init()
  ret void
}


!llvm.module.flags = !{!0}
!llvm.ident = !{!1}

!0 = !{i32 1, !"wchar_size", i32 4}
!1 = !{!"clang version 10.0.0-4ubuntu1 "}
