; ModuleID = 'source-C-CXX/54/1579.cpp'
source_filename = "source-C-CXX/54/1579.cpp"
target datalayout = "e-m:e-p270:32:32-p271:32:32-p272:64:64-i64:64-f80:128-n8:16:32:64-S128"
target triple = "x86_64-pc-linux-gnu"

%"class.std::ios_base::Init" = type { i8 }
%"class.std::basic_ostream" = type { i32 (...)**, %"class.std::basic_ios" }
%"class.std::basic_ios" = type { %"class.std::ios_base", %"class.std::basic_ostream"*, i8, i8, %"class.std::basic_streambuf"*, %"class.std::ctype"*, %"class.std::num_put"*, %"class.std::num_get"* }
%"class.std::ios_base" = type { i32 (...)**, i64, i64, i32, i32, i32, %"struct.std::ios_base::_Callback_list"*, %"struct.std::ios_base::_Words", [8 x %"struct.std::ios_base::_Words"], i32, %"struct.std::ios_base::_Words"*, %"class.std::locale" }
%"struct.std::ios_base::_Callback_list" = type { %"struct.std::ios_base::_Callback_list"*, void (i32, %"class.std::ios_base"*, i32)*, i32, i32 }
%"struct.std::ios_base::_Words" = type { i8*, i64 }
%"class.std::locale" = type { %"class.std::locale::_Impl"* }
%"class.std::locale::_Impl" = type { i32, %"class.std::locale::facet"**, i64, %"class.std::locale::facet"**, i8** }
%"class.std::locale::facet" = type <{ i32 (...)**, i32, [4 x i8] }>
%"class.std::basic_streambuf" = type { i32 (...)**, i8*, i8*, i8*, i8*, i8*, i8*, %"class.std::locale" }
%"class.std::ctype" = type <{ %"class.std::locale::facet.base", [4 x i8], %struct.__locale_struct*, i8, [7 x i8], i32*, i32*, i16*, i8, [256 x i8], [256 x i8], i8, [6 x i8] }>
%"class.std::locale::facet.base" = type <{ i32 (...)**, i32 }>
%struct.__locale_struct = type { [13 x %struct.__locale_data*], i16*, i32*, i32*, [13 x i8*] }
%struct.__locale_data = type opaque
%"class.std::num_put" = type { %"class.std::locale::facet.base", [4 x i8] }
%"class.std::num_get" = type { %"class.std::locale::facet.base", [4 x i8] }
%"class.std::basic_istream" = type { i32 (...)**, i64, %"class.std::basic_ios" }

@_ZStL8__ioinit = internal global %"class.std::ios_base::Init" zeroinitializer, align 1
@__dso_handle = external hidden global i8
@CHR = dso_local local_unnamed_addr global [120 x i8] zeroinitializer, align 16
@p1 = dso_local global i32 0, align 4
@p2 = dso_local local_unnamed_addr global i32 0, align 4
@p3 = dso_local global i32 0, align 4
@num = dso_local local_unnamed_addr global i32 0, align 4
@_ZSt4cout = external global %"class.std::basic_ostream", align 8
@_ZSt3cin = external global %"class.std::basic_istream", align 8
@llvm.global_ctors = appending global [1 x { i32, void ()*, i8* }] [{ i32, void ()*, i8* } { i32 65535, void ()* @_GLOBAL__sub_I_1579.cpp, i8* null }]

declare void @_ZNSt8ios_base4InitC1Ev(%"class.std::ios_base::Init"* nonnull align 1 dereferenceable(1)) unnamed_addr #0

; Function Attrs: nounwind
declare void @_ZNSt8ios_base4InitD1Ev(%"class.std::ios_base::Init"* nonnull align 1 dereferenceable(1)) unnamed_addr #1

; Function Attrs: nofree nounwind
declare i32 @__cxa_atexit(void (i8*)*, i8*, i8*) local_unnamed_addr #2

; Function Attrs: mustprogress nofree norecurse nosync nounwind readnone sspstrong uwtable willreturn
define dso_local i32 @_Z4dealc(i8 signext %0) local_unnamed_addr #3 {
  %2 = sext i8 %0 to i32
  %3 = add i8 %0, -48
  %4 = icmp ult i8 %3, 10
  br i1 %4, label %5, label %7

5:                                                ; preds = %1
  %6 = add nsw i32 %2, -48
  br label %12

7:                                                ; preds = %1
  %8 = add i8 %0, -65
  %9 = icmp ult i8 %8, 26
  %10 = add nsw i32 %2, -55
  %11 = select i1 %9, i32 %10, i32 -1
  br label %12

12:                                               ; preds = %7, %5
  %13 = phi i32 [ %6, %5 ], [ %11, %7 ]
  ret i32 %13
}

; Function Attrs: mustprogress nofree nosync nounwind sspstrong uwtable willreturn
define dso_local signext i8 @_Z4laedi(i32 %0) local_unnamed_addr #4 {
  %2 = icmp ult i32 %0, 10
  br i1 %2, label %5, label %3

3:                                                ; preds = %1
  %4 = icmp sgt i32 %0, 9
  tail call void @llvm.assume(i1 %4)
  br label %5

5:                                                ; preds = %1, %3
  %6 = phi i8 [ 55, %3 ], [ 48, %1 ]
  %7 = trunc i32 %0 to i8
  %8 = add i8 %6, %7
  ret i8 %8
}

; Function Attrs: mustprogress sspstrong uwtable
define dso_local void @_Z6outputi(i32 %0) local_unnamed_addr #5 {
  %2 = alloca i8, align 1
  %3 = icmp eq i32 %0, 0
  br i1 %3, label %17, label %4

4:                                                ; preds = %1
  %5 = load i32, i32* @p3, align 4, !tbaa !5
  %6 = sdiv i32 %0, %5
  tail call void @_Z6outputi(i32 %6)
  %7 = load i32, i32* @p3, align 4, !tbaa !5
  %8 = srem i32 %0, %7
  %9 = icmp ult i32 %8, 10
  br i1 %9, label %12, label %10

10:                                               ; preds = %4
  %11 = icmp sgt i32 %8, 9
  tail call void @llvm.assume(i1 %11) #11
  br label %12

12:                                               ; preds = %4, %10
  %13 = phi i8 [ 55, %10 ], [ 48, %4 ]
  %14 = trunc i32 %8 to i8
  %15 = add i8 %13, %14
  call void @llvm.lifetime.start.p0i8(i64 1, i8* nonnull %2)
  store i8 %15, i8* %2, align 1, !tbaa !9
  %16 = call nonnull align 8 dereferenceable(8) %"class.std::basic_ostream"* @_ZSt16__ostream_insertIcSt11char_traitsIcEERSt13basic_ostreamIT_T0_ES6_PKS3_l(%"class.std::basic_ostream"* nonnull align 8 dereferenceable(8) @_ZSt4cout, i8* nonnull %2, i64 1)
  call void @llvm.lifetime.end.p0i8(i64 1, i8* nonnull %2)
  br label %17

17:                                               ; preds = %1, %12
  ret void
}

; Function Attrs: mustprogress norecurse sspstrong uwtable
define dso_local i32 @main() local_unnamed_addr #6 {
  %1 = tail call nonnull align 8 dereferenceable(16) %"class.std::basic_istream"* @_ZNSirsERi(%"class.std::basic_istream"* nonnull align 8 dereferenceable(16) @_ZSt3cin, i32* nonnull align 4 dereferenceable(4) @p1)
  %2 = tail call i32 @_ZNSi3getEv(%"class.std::basic_istream"* nonnull align 8 dereferenceable(16) @_ZSt3cin)
  store i32 0, i32* @p2, align 4, !tbaa !5
  store i32 0, i32* @num, align 4, !tbaa !5
  %3 = tail call i32 @_ZNSi3getEv(%"class.std::basic_istream"* nonnull align 8 dereferenceable(16) @_ZSt3cin)
  %4 = trunc i32 %3 to i8
  %5 = load i32, i32* @p2, align 4, !tbaa !5
  %6 = sext i32 %5 to i64
  %7 = getelementptr inbounds [120 x i8], [120 x i8]* @CHR, i64 0, i64 %6
  store i8 %4, i8* %7, align 1, !tbaa !9
  %8 = and i32 %3, 255
  %9 = icmp eq i32 %8, 32
  br i1 %9, label %44, label %10

10:                                               ; preds = %0, %33
  %11 = phi i8* [ %41, %33 ], [ %7, %0 ]
  %12 = phi i32 [ %39, %33 ], [ %5, %0 ]
  %13 = phi i8 [ %38, %33 ], [ %4, %0 ]
  %14 = add i8 %13, -97
  %15 = icmp ult i8 %14, 26
  br i1 %15, label %16, label %18

16:                                               ; preds = %10
  %17 = add nsw i8 %13, -32
  store i8 %17, i8* %11, align 1, !tbaa !9
  br label %18

18:                                               ; preds = %16, %10
  %19 = phi i8 [ %17, %16 ], [ %13, %10 ]
  %20 = load i32, i32* @num, align 4, !tbaa !5
  %21 = load i32, i32* @p1, align 4, !tbaa !5
  %22 = mul nsw i32 %21, %20
  %23 = sext i8 %19 to i32
  %24 = add i8 %19, -48
  %25 = icmp ult i8 %24, 10
  br i1 %25, label %26, label %28

26:                                               ; preds = %18
  %27 = add nsw i32 %23, -48
  br label %33

28:                                               ; preds = %18
  %29 = add i8 %19, -65
  %30 = icmp ult i8 %29, 26
  %31 = add nsw i32 %23, -55
  %32 = select i1 %30, i32 %31, i32 -1
  br label %33

33:                                               ; preds = %26, %28
  %34 = phi i32 [ %27, %26 ], [ %32, %28 ]
  %35 = add nsw i32 %34, %22
  store i32 %35, i32* @num, align 4, !tbaa !5
  %36 = add nsw i32 %12, 1
  store i32 %36, i32* @p2, align 4, !tbaa !5
  %37 = tail call i32 @_ZNSi3getEv(%"class.std::basic_istream"* nonnull align 8 dereferenceable(16) @_ZSt3cin)
  %38 = trunc i32 %37 to i8
  %39 = load i32, i32* @p2, align 4, !tbaa !5
  %40 = sext i32 %39 to i64
  %41 = getelementptr inbounds [120 x i8], [120 x i8]* @CHR, i64 0, i64 %40
  store i8 %38, i8* %41, align 1, !tbaa !9
  %42 = and i32 %37, 255
  %43 = icmp eq i32 %42, 32
  br i1 %43, label %44, label %10, !llvm.loop !10

44:                                               ; preds = %33, %0
  %45 = tail call nonnull align 8 dereferenceable(16) %"class.std::basic_istream"* @_ZNSirsERi(%"class.std::basic_istream"* nonnull align 8 dereferenceable(16) @_ZSt3cin, i32* nonnull align 4 dereferenceable(4) @p3)
  %46 = load i32, i32* @num, align 4, !tbaa !5
  %47 = icmp eq i32 %46, 0
  br i1 %47, label %48, label %50

48:                                               ; preds = %44
  %49 = tail call nonnull align 8 dereferenceable(8) %"class.std::basic_ostream"* @_ZNSolsEi(%"class.std::basic_ostream"* nonnull align 8 dereferenceable(8) @_ZSt4cout, i32 0)
  br label %51

50:                                               ; preds = %44
  tail call void @_Z6outputi(i32 %46)
  br label %51

51:                                               ; preds = %50, %48
  %52 = load i8*, i8** bitcast (%"class.std::basic_ostream"* @_ZSt4cout to i8**), align 8, !tbaa !12
  %53 = getelementptr i8, i8* %52, i64 -24
  %54 = bitcast i8* %53 to i64*
  %55 = load i64, i64* %54, align 8
  %56 = add nsw i64 %55, 240
  %57 = getelementptr inbounds i8, i8* bitcast (%"class.std::basic_ostream"* @_ZSt4cout to i8*), i64 %56
  %58 = bitcast i8* %57 to %"class.std::ctype"**
  %59 = load %"class.std::ctype"*, %"class.std::ctype"** %58, align 8, !tbaa !14
  %60 = icmp eq %"class.std::ctype"* %59, null
  br i1 %60, label %61, label %62

61:                                               ; preds = %51
  tail call void @_ZSt16__throw_bad_castv() #12
  unreachable

62:                                               ; preds = %51
  %63 = getelementptr inbounds %"class.std::ctype", %"class.std::ctype"* %59, i64 0, i32 8
  %64 = load i8, i8* %63, align 8, !tbaa !18
  %65 = icmp eq i8 %64, 0
  br i1 %65, label %69, label %66

66:                                               ; preds = %62
  %67 = getelementptr inbounds %"class.std::ctype", %"class.std::ctype"* %59, i64 0, i32 9, i64 10
  %68 = load i8, i8* %67, align 1, !tbaa !9
  br label %75

69:                                               ; preds = %62
  tail call void @_ZNKSt5ctypeIcE13_M_widen_initEv(%"class.std::ctype"* nonnull align 8 dereferenceable(570) %59)
  %70 = bitcast %"class.std::ctype"* %59 to i8 (%"class.std::ctype"*, i8)***
  %71 = load i8 (%"class.std::ctype"*, i8)**, i8 (%"class.std::ctype"*, i8)*** %70, align 8, !tbaa !12
  %72 = getelementptr inbounds i8 (%"class.std::ctype"*, i8)*, i8 (%"class.std::ctype"*, i8)** %71, i64 6
  %73 = load i8 (%"class.std::ctype"*, i8)*, i8 (%"class.std::ctype"*, i8)** %72, align 8
  %74 = tail call signext i8 %73(%"class.std::ctype"* nonnull align 8 dereferenceable(570) %59, i8 signext 10)
  br label %75

75:                                               ; preds = %66, %69
  %76 = phi i8 [ %68, %66 ], [ %74, %69 ]
  %77 = tail call nonnull align 8 dereferenceable(8) %"class.std::basic_ostream"* @_ZNSo3putEc(%"class.std::basic_ostream"* nonnull align 8 dereferenceable(8) @_ZSt4cout, i8 signext %76)
  %78 = tail call nonnull align 8 dereferenceable(8) %"class.std::basic_ostream"* @_ZNSo5flushEv(%"class.std::basic_ostream"* nonnull align 8 dereferenceable(8) %77)
  ret i32 0
}

declare nonnull align 8 dereferenceable(16) %"class.std::basic_istream"* @_ZNSirsERi(%"class.std::basic_istream"* nonnull align 8 dereferenceable(16), i32* nonnull align 4 dereferenceable(4)) local_unnamed_addr #0

declare i32 @_ZNSi3getEv(%"class.std::basic_istream"* nonnull align 8 dereferenceable(16)) local_unnamed_addr #0

declare nonnull align 8 dereferenceable(8) %"class.std::basic_ostream"* @_ZNSolsEi(%"class.std::basic_ostream"* nonnull align 8 dereferenceable(8), i32) local_unnamed_addr #0

declare nonnull align 8 dereferenceable(8) %"class.std::basic_ostream"* @_ZSt16__ostream_insertIcSt11char_traitsIcEERSt13basic_ostreamIT_T0_ES6_PKS3_l(%"class.std::basic_ostream"* nonnull align 8 dereferenceable(8), i8*, i64) local_unnamed_addr #0

declare nonnull align 8 dereferenceable(8) %"class.std::basic_ostream"* @_ZNSo3putEc(%"class.std::basic_ostream"* nonnull align 8 dereferenceable(8), i8 signext) local_unnamed_addr #0

declare nonnull align 8 dereferenceable(8) %"class.std::basic_ostream"* @_ZNSo5flushEv(%"class.std::basic_ostream"* nonnull align 8 dereferenceable(8)) local_unnamed_addr #0

; Function Attrs: noreturn
declare void @_ZSt16__throw_bad_castv() local_unnamed_addr #7

declare void @_ZNKSt5ctypeIcE13_M_widen_initEv(%"class.std::ctype"* nonnull align 8 dereferenceable(570)) local_unnamed_addr #0

; Function Attrs: sspstrong uwtable
define internal void @_GLOBAL__sub_I_1579.cpp() #8 section ".text.startup" {
  tail call void @_ZNSt8ios_base4InitC1Ev(%"class.std::ios_base::Init"* nonnull align 1 dereferenceable(1) @_ZStL8__ioinit)
  %1 = tail call i32 @__cxa_atexit(void (i8*)* bitcast (void (%"class.std::ios_base::Init"*)* @_ZNSt8ios_base4InitD1Ev to void (i8*)*), i8* getelementptr inbounds (%"class.std::ios_base::Init", %"class.std::ios_base::Init"* @_ZStL8__ioinit, i64 0, i32 0), i8* nonnull @__dso_handle) #11
  ret void
}

; Function Attrs: inaccessiblememonly nofree nosync nounwind willreturn
declare void @llvm.assume(i1 noundef) #9

; Function Attrs: argmemonly nofree nosync nounwind willreturn
declare void @llvm.lifetime.start.p0i8(i64 immarg, i8* nocapture) #10

; Function Attrs: argmemonly nofree nosync nounwind willreturn
declare void @llvm.lifetime.end.p0i8(i64 immarg, i8* nocapture) #10


!llvm.module.flags = !{!0, !1, !2, !3}
!llvm.ident = !{!4}

!0 = !{i32 1, !"wchar_size", i32 4}
!1 = !{i32 7, !"PIC Level", i32 2}
!2 = !{i32 7, !"PIE Level", i32 2}
!3 = !{i32 7, !"uwtable", i32 1}
!4 = !{!"clang version 13.0.0"}
!5 = !{!6, !6, i64 0}
!6 = !{!"int", !7, i64 0}
!7 = !{!"omnipotent char", !8, i64 0}
!8 = !{!"Simple C++ TBAA"}
!9 = !{!7, !7, i64 0}
!10 = distinct !{!10, !11}
!11 = !{!"llvm.loop.mustprogress"}
!12 = !{!13, !13, i64 0}
!13 = !{!"vtable pointer", !8, i64 0}
!14 = !{!15, !16, i64 240}
!15 = !{!"_ZTSSt9basic_iosIcSt11char_traitsIcEE", !16, i64 216, !7, i64 224, !17, i64 225, !16, i64 232, !16, i64 240, !16, i64 248, !16, i64 256}
!16 = !{!"any pointer", !7, i64 0}
!17 = !{!"bool", !7, i64 0}
!18 = !{!19, !7, i64 56}
!19 = !{!"_ZTSSt5ctypeIcE", !16, i64 16, !17, i64 24, !16, i64 32, !16, i64 40, !16, i64 48, !7, i64 56, !7, i64 57, !7, i64 313, !7, i64 569}
